target datalayout = "e-m:e-p270:32:32-p271:32:32-p272:64:64-i64:64-i128:128-f80:128-n8:16:32:64-S128"
target triple = "x86_64-pc-linux-gnu"

%struct.DIST_POINT_NAME_st = type { i32, %union.anon, ptr }
%union.anon = type { ptr }
%struct.X509_name_st = type { ptr, i32, ptr, ptr, i32 }

@.str.43 = private unnamed_addr constant [1 x i8] zeroinitializer, align 1
@.str.49 = private unnamed_addr constant [15 x i8] c"%*sFull Name:\0A\00", align 1
@.str.50 = private unnamed_addr constant [2 x i8] c"\0A\00", align 1
@.str.51 = private unnamed_addr constant [22 x i8] c"%*sRelative Name:\0A%*s\00", align 1

; Function Attrs: nounwind uwtable
define internal i32 @print_distpoint(ptr noundef %0, ptr noundef %1, i32 noundef %2) #0 {
  %4 = alloca ptr, align 8
  %5 = alloca ptr, align 8
  %6 = alloca i32, align 4
  %7 = alloca %struct.X509_name_st, align 8
  store ptr %0, ptr %4, align 8, !tbaa !37
  store ptr %1, ptr %5, align 8, !tbaa !48
  store i32 %2, ptr %6, align 4, !tbaa !16
  %8 = load ptr, ptr %5, align 8, !tbaa !48
  %9 = getelementptr inbounds nuw %struct.DIST_POINT_NAME_st, ptr %8, i32 0, i32 0
  %10 = load i32, ptr %9, align 8, !tbaa !32
  %11 = icmp eq i32 %10, 0
  br i1 %11, label %12, label %24

12:                                               ; preds = %3
  %13 = load ptr, ptr %4, align 8, !tbaa !37
  %14 = load i32, ptr %6, align 4, !tbaa !16
  %15 = call i32 (ptr, ptr, ...) @BIO_printf(ptr noundef %13, ptr noundef @.str.49, i32 noundef %14, ptr noundef @.str.43)
  %16 = load ptr, ptr %4, align 8, !tbaa !37
  %17 = load ptr, ptr %5, align 8, !tbaa !48
  %18 = getelementptr inbounds nuw %struct.DIST_POINT_NAME_st, ptr %17, i32 0, i32 1
  %19 = load ptr, ptr %18, align 8, !tbaa !31
  %20 = load i32, ptr %6, align 4, !tbaa !16
  %21 = call i32 @OSSL_GENERAL_NAMES_print(ptr noundef %16, ptr noundef %19, i32 noundef %20)
  %22 = load ptr, ptr %4, align 8, !tbaa !37
  %23 = call i32 @BIO_puts(ptr noundef %22, ptr noundef @.str.50)
  br label %38

24:                                               ; preds = %3
  call void @llvm.lifetime.start.p0(i64 40, ptr %7) #5
  %25 = load ptr, ptr %5, align 8, !tbaa !48
  %26 = getelementptr inbounds nuw %struct.DIST_POINT_NAME_st, ptr %25, i32 0, i32 1
  %27 = load ptr, ptr %26, align 8, !tbaa !31
  %28 = getelementptr inbounds nuw %struct.X509_name_st, ptr %7, i32 0, i32 0
  store ptr %27, ptr %28, align 8, !tbaa !85
  %29 = load ptr, ptr %4, align 8, !tbaa !37
  %30 = load i32, ptr %6, align 4, !tbaa !16
  %31 = load i32, ptr %6, align 4, !tbaa !16
  %32 = add nsw i32 %31, 2
  %33 = call i32 (ptr, ptr, ...) @BIO_printf(ptr noundef %29, ptr noundef @.str.51, i32 noundef %30, ptr noundef @.str.43, i32 noundef %32, ptr noundef @.str.43)
  %34 = load ptr, ptr %4, align 8, !tbaa !37
  %35 = call i32 @X509_NAME_print_ex(ptr noundef %34, ptr noundef %7, i32 noundef 0, i64 noundef 8520479)
  %36 = load ptr, ptr %4, align 8, !tbaa !37
  %37 = call i32 @BIO_puts(ptr noundef %36, ptr noundef @.str.50)
  call void @llvm.lifetime.end.p0(i64 40, ptr %7) #5
  br label %38

38:                                               ; preds = %24, %12
  ret i32 1
}