; Function Attrs: nounwind uwtable
define internal fastcc void @print_distpoint(ptr noundef %0, ptr noundef nonnull readonly captures(none) %1, i32 noundef %2) unnamed_addr #1 {
  %4 = alloca %struct.X509_name_st, align 8
  %5 = load i32, ptr %1, align 8, !tbaa !20
  %6 = icmp eq i32 %5, 0
  %7 = getelementptr inbounds nuw i8, ptr %1, i64 8
  br i1 %6, label %8, label %13

8:                                                ; preds = %3
  %9 = tail call i32 (ptr, ptr, ...) @BIO_printf(ptr noundef %0, ptr noundef nonnull @.str.49, i32 noundef %2, ptr noundef nonnull @.str.43) #5
  %10 = load ptr, ptr %7, align 8, !tbaa !19
  %11 = tail call i32 @OSSL_GENERAL_NAMES_print(ptr noundef %0, ptr noundef %10, i32 noundef %2) #5
  %12 = tail call i32 @BIO_puts(ptr noundef %0, ptr noundef nonnull @.str.50) #5
  br label %19

13:                                               ; preds = %3
  call void @llvm.lifetime.start.p0(i64 40, ptr nonnull %4) #5
  %14 = load ptr, ptr %7, align 8, !tbaa !19
  store ptr %14, ptr %4, align 8, !tbaa !48
  %15 = add nsw i32 %2, 2
  %16 = tail call i32 (ptr, ptr, ...) @BIO_printf(ptr noundef %0, ptr noundef nonnull @.str.51, i32 noundef %2, ptr noundef nonnull @.str.43, i32 noundef %15, ptr noundef nonnull @.str.43) #5
  %17 = call i32 @X509_NAME_print_ex(ptr noundef %0, ptr noundef nonnull %4, i32 noundef 0, i64 noundef 8520479) #5
  %18 = call i32 @BIO_puts(ptr noundef %0, ptr noundef nonnull @.str.50) #5
  call void @llvm.lifetime.end.p0(i64 40, ptr nonnull %4) #5
  br label %19

19:                                               ; preds = %13, %8
  ret void
}